target datalayout = "e-m:e-p270:32:32-p271:32:32-p272:64:64-i64:64-i128:128-f80:128-n8:16:32:64-S128"
target triple = "x86_64-pc-linux-gnu"

%struct.Curl_cftype = type { ptr, i32, i32, ptr, ptr, ptr, ptr, ptr, ptr, ptr, ptr, ptr, ptr, ptr, ptr, ptr }
%struct.Curl_cfilter = type { ptr, ptr, ptr, ptr, i32, i8 }
%struct.curltime = type { i64, i32 }
%struct.cf_hc_ctx = type { i32, ptr, %struct.curltime, i32, [2 x %struct.cf_hc_baller], i64, i32, i32 }
%struct.cf_hc_baller = type { ptr, ptr, i32, %struct.curltime, i32, i32, i8 }

; Function Attrs: nounwind uwtable
define internal zeroext i1 @cf_hc_baller_needs_flush(ptr noundef %0, ptr noundef %1) #0 {
  %3 = alloca ptr, align 8
  %4 = alloca ptr, align 8
  store ptr %0, ptr %3, align 8, !tbaa !123
  store ptr %1, ptr %4, align 8, !tbaa !8
  %5 = load ptr, ptr %3, align 8, !tbaa !123
  %6 = getelementptr inbounds nuw %struct.cf_hc_baller, ptr %5, i32 0, i32 1
  %7 = load ptr, ptr %6, align 8, !tbaa !125
  %8 = icmp ne ptr %7, null
  br i1 %8, label %9, label %20

9:                                                ; preds = %2
  %10 = load ptr, ptr %3, align 8, !tbaa !123
  %11 = getelementptr inbounds nuw %struct.cf_hc_baller, ptr %10, i32 0, i32 2
  %12 = load i32, ptr %11, align 8, !tbaa !117
  %13 = icmp ne i32 %12, 0
  br i1 %13, label %20, label %14

14:                                               ; preds = %9
  %15 = load ptr, ptr %3, align 8, !tbaa !123
  %16 = getelementptr inbounds nuw %struct.cf_hc_baller, ptr %15, i32 0, i32 1
  %17 = load ptr, ptr %16, align 8, !tbaa !125
  %18 = load ptr, ptr %4, align 8, !tbaa !8
  %19 = call zeroext i1 @Curl_conn_cf_needs_flush(ptr noundef %17, ptr noundef %18)
  br label %20

20:                                               ; preds = %14, %9, %2
  %21 = phi i1 [ false, %9 ], [ false, %2 ], [ %19, %14 ]
  ret i1 %21
}

; Function Attrs: nounwind uwtable
define internal { i64, i32 } @cf_get_max_baller_time(ptr noundef %0, ptr noundef %1, i32 noundef %2) #0 {
  %4 = alloca %struct.curltime, align 8
  %5 = alloca ptr, align 8
  %6 = alloca ptr, align 8
  %7 = alloca i32, align 4
  %8 = alloca ptr, align 8
  %9 = alloca %struct.curltime, align 8
  %10 = alloca i64, align 8
  %11 = alloca ptr, align 8
  store ptr %0, ptr %5, align 8, !tbaa !3
  store ptr %1, ptr %6, align 8, !tbaa !8
  store i32 %2, ptr %7, align 4, !tbaa !94
  call void @llvm.lifetime.start.p0(i64 8, ptr %8) #5
  %12 = load ptr, ptr %5, align 8, !tbaa !3
  %13 = getelementptr inbounds nuw %struct.Curl_cfilter, ptr %12, i32 0, i32 2
  %14 = load ptr, ptr %13, align 8, !tbaa !10
  store ptr %14, ptr %8, align 8, !tbaa !15
  call void @llvm.lifetime.start.p0(i64 16, ptr %9) #5
  call void @llvm.lifetime.start.p0(i64 8, ptr %10) #5
  call void @llvm.memset.p0.i64(ptr align 8 %4, i8 0, i64 16, i1 false)
  store i64 0, ptr %10, align 8, !tbaa !96
  br label %15

15:                                               ; preds = %63, %3
  %16 = load i64, ptr %10, align 8, !tbaa !96
  %17 = load ptr, ptr %8, align 8, !tbaa !15
  %18 = getelementptr inbounds nuw %struct.cf_hc_ctx, ptr %17, i32 0, i32 5
  %19 = load i64, ptr %18, align 8, !tbaa !99
  %20 = icmp ult i64 %16, %19
  br i1 %20, label %21, label %66

21:                                               ; preds = %15
  call void @llvm.lifetime.start.p0(i64 8, ptr %11) #5
  %22 = load ptr, ptr %8, align 8, !tbaa !15
  %23 = getelementptr inbounds nuw %struct.cf_hc_ctx, ptr %22, i32 0, i32 4
  %24 = load i64, ptr %10, align 8, !tbaa !96
  %25 = getelementptr inbounds nuw [2 x %struct.cf_hc_baller], ptr %23, i64 0, i64 %24
  %26 = getelementptr inbounds nuw %struct.cf_hc_baller, ptr %25, i32 0, i32 1
  %27 = load ptr, ptr %26, align 8, !tbaa !125
  store ptr %27, ptr %11, align 8, !tbaa !3
  call void @llvm.memset.p0.i64(ptr align 8 %9, i8 0, i64 16, i1 false)
  %28 = load ptr, ptr %11, align 8, !tbaa !3
  %29 = icmp ne ptr %28, null
  br i1 %29, label %30, label %62

30:                                               ; preds = %21
  %31 = load ptr, ptr %11, align 8, !tbaa !3
  %32 = getelementptr inbounds nuw %struct.Curl_cfilter, ptr %31, i32 0, i32 0
  %33 = load ptr, ptr %32, align 8, !tbaa !86
  %34 = getelementptr inbounds nuw %struct.Curl_cftype, ptr %33, i32 0, i32 15
  %35 = load ptr, ptr %34, align 8, !tbaa !142
  %36 = load ptr, ptr %11, align 8, !tbaa !3
  %37 = load ptr, ptr %6, align 8, !tbaa !8
  %38 = load i32, ptr %7, align 4, !tbaa !94
  %39 = call i32 %35(ptr noundef %36, ptr noundef %37, i32 noundef %38, ptr noundef null, ptr noundef %9)
  %40 = icmp ne i32 %39, 0
  br i1 %40, label %62, label %41

41:                                               ; preds = %30
  %42 = getelementptr inbounds nuw %struct.curltime, ptr %9, i32 0, i32 0
  %43 = load i64, ptr %42, align 8, !tbaa !155
  %44 = icmp ne i64 %43, 0
  br i1 %44, label %49, label %45

45:                                               ; preds = %41
  %46 = getelementptr inbounds nuw %struct.curltime, ptr %9, i32 0, i32 1
  %47 = load i32, ptr %46, align 8, !tbaa !156
  %48 = icmp ne i32 %47, 0
  br i1 %48, label %49, label %61

49:                                               ; preds = %45, %41
  %50 = getelementptr inbounds nuw { i64, i32 }, ptr %9, i32 0, i32 0
  %51 = load i64, ptr %50, align 8
  %52 = getelementptr inbounds nuw { i64, i32 }, ptr %9, i32 0, i32 1
  %53 = load i32, ptr %52, align 8
  %54 = getelementptr inbounds nuw { i64, i32 }, ptr %4, i32 0, i32 0
  %55 = load i64, ptr %54, align 8
  %56 = getelementptr inbounds nuw { i64, i32 }, ptr %4, i32 0, i32 1
  %57 = load i32, ptr %56, align 8
  %58 = call i64 @Curl_timediff_us(i64 %51, i32 %53, i64 %55, i32 %57)
  %59 = icmp sgt i64 %58, 0
  br i1 %59, label %60, label %61

60:                                               ; preds = %49
  call void @llvm.memcpy.p0.p0.i64(ptr align 8 %4, ptr align 8 %9, i64 16, i1 false), !tbaa.struct !95
  br label %61

61:                                               ; preds = %60, %49, %45
  br label %62

62:                                               ; preds = %61, %30, %21
  call void @llvm.lifetime.end.p0(i64 8, ptr %11) #5
  br label %63

63:                                               ; preds = %62
  %64 = load i64, ptr %10, align 8, !tbaa !96
  %65 = add i64 %64, 1
  store i64 %65, ptr %10, align 8, !tbaa !96
  br label %15, !llvm.loop !157

66:                                               ; preds = %15
  call void @llvm.lifetime.end.p0(i64 8, ptr %10) #5
  call void @llvm.lifetime.end.p0(i64 16, ptr %9) #5
  call void @llvm.lifetime.end.p0(i64 8, ptr %8) #5
  %67 = load { i64, i32 }, ptr %4, align 8
  ret { i64, i32 } %67
}

; Function Attrs: nounwind uwtable
define internal i32 @cf_hc_query(ptr noundef %0, ptr noundef %1, i32 noundef %2, ptr noundef %3, ptr noundef %4) #0 {
  %6 = alloca i32, align 4
  %7 = alloca ptr, align 8
  %8 = alloca ptr, align 8
  %9 = alloca i32, align 4
  %10 = alloca ptr, align 8
  %11 = alloca ptr, align 8
  %12 = alloca ptr, align 8
  %13 = alloca i64, align 8
  %14 = alloca ptr, align 8
  %15 = alloca %struct.curltime, align 8
  %16 = alloca i32, align 4
  %17 = alloca ptr, align 8
  %18 = alloca %struct.curltime, align 8
  store ptr %0, ptr %7, align 8, !tbaa !3
  store ptr %1, ptr %8, align 8, !tbaa !8
  store i32 %2, ptr %9, align 4, !tbaa !94
  store ptr %3, ptr %10, align 8, !tbaa !137
  store ptr %4, ptr %11, align 8, !tbaa !89
  call void @llvm.lifetime.start.p0(i64 8, ptr %12) #5
  %19 = load ptr, ptr %7, align 8, !tbaa !3
  %20 = getelementptr inbounds nuw %struct.Curl_cfilter, ptr %19, i32 0, i32 2
  %21 = load ptr, ptr %20, align 8, !tbaa !10
  store ptr %21, ptr %12, align 8, !tbaa !15
  call void @llvm.lifetime.start.p0(i64 8, ptr %13) #5
  %22 = load ptr, ptr %7, align 8, !tbaa !3
  %23 = getelementptr inbounds nuw %struct.Curl_cfilter, ptr %22, i32 0, i32 5
  %24 = load i8, ptr %23, align 4
  %25 = and i8 %24, 1
  %26 = zext i8 %25 to i32
  %27 = icmp ne i32 %26, 0
  br i1 %27, label %73, label %28

28:                                               ; preds = %5
  %29 = load i32, ptr %9, align 4, !tbaa !94
  switch i32 %29, label %71 [
    i32 4, label %30
    i32 5, label %40
    i32 7, label %50
  ]

30:                                               ; preds = %28
  call void @llvm.lifetime.start.p0(i64 8, ptr %14) #5
  %31 = load ptr, ptr %11, align 8, !tbaa !89
  store ptr %31, ptr %14, align 8, !tbaa !139
  %32 = load ptr, ptr %14, align 8, !tbaa !139
  call void @llvm.lifetime.start.p0(i64 16, ptr %15) #5
  %33 = load ptr, ptr %7, align 8, !tbaa !3
  %34 = load ptr, ptr %8, align 8, !tbaa !8
  %35 = call { i64, i32 } @cf_get_max_baller_time(ptr noundef %33, ptr noundef %34, i32 noundef 4)
  %36 = getelementptr inbounds nuw { i64, i32 }, ptr %15, i32 0, i32 0
  %37 = extractvalue { i64, i32 } %35, 0
  store i64 %37, ptr %36, align 8
  %38 = getelementptr inbounds nuw { i64, i32 }, ptr %15, i32 0, i32 1
  %39 = extractvalue { i64, i32 } %35, 1
  store i32 %39, ptr %38, align 8
  call void @llvm.memcpy.p0.p0.i64(ptr align 8 %32, ptr align 8 %15, i64 16, i1 false), !tbaa.struct !95
  call void @llvm.lifetime.end.p0(i64 16, ptr %15) #5
  store i32 0, ptr %6, align 4
  store i32 1, ptr %16, align 4
  call void @llvm.lifetime.end.p0(i64 8, ptr %14) #5
  br label %97

40:                                               ; preds = %28
  call void @llvm.lifetime.start.p0(i64 8, ptr %17) #5
  %41 = load ptr, ptr %11, align 8, !tbaa !89
  store ptr %41, ptr %17, align 8, !tbaa !139
  %42 = load ptr, ptr %17, align 8, !tbaa !139
  call void @llvm.lifetime.start.p0(i64 16, ptr %18) #5
  %43 = load ptr, ptr %7, align 8, !tbaa !3
  %44 = load ptr, ptr %8, align 8, !tbaa !8
  %45 = call { i64, i32 } @cf_get_max_baller_time(ptr noundef %43, ptr noundef %44, i32 noundef 5)
  %46 = getelementptr inbounds nuw { i64, i32 }, ptr %18, i32 0, i32 0
  %47 = extractvalue { i64, i32 } %45, 0
  store i64 %47, ptr %46, align 8
  %48 = getelementptr inbounds nuw { i64, i32 }, ptr %18, i32 0, i32 1
  %49 = extractvalue { i64, i32 } %45, 1
  store i32 %49, ptr %48, align 8
  call void @llvm.memcpy.p0.p0.i64(ptr align 8 %42, ptr align 8 %18, i64 16, i1 false), !tbaa.struct !95
  call void @llvm.lifetime.end.p0(i64 16, ptr %18) #5
  store i32 0, ptr %6, align 4
  store i32 1, ptr %16, align 4
  call void @llvm.lifetime.end.p0(i64 8, ptr %17) #5
  br label %97

50:                                               ; preds = %28
  store i64 0, ptr %13, align 8, !tbaa !96
  br label %51

51:                                               ; preds = %67, %50
  %52 = load i64, ptr %13, align 8, !tbaa !96
  %53 = load ptr, ptr %12, align 8, !tbaa !15
  %54 = getelementptr inbounds nuw %struct.cf_hc_ctx, ptr %53, i32 0, i32 5
  %55 = load i64, ptr %54, align 8, !tbaa !99
  %56 = icmp ult i64 %52, %55
  br i1 %56, label %57, label %70

57:                                               ; preds = %51
  %58 = load ptr, ptr %12, align 8, !tbaa !15
  %59 = getelementptr inbounds nuw %struct.cf_hc_ctx, ptr %58, i32 0, i32 4
  %60 = load i64, ptr %13, align 8, !tbaa !96
  %61 = getelementptr inbounds nuw [2 x %struct.cf_hc_baller], ptr %59, i64 0, i64 %60
  %62 = load ptr, ptr %8, align 8, !tbaa !8
  %63 = call zeroext i1 @cf_hc_baller_needs_flush(ptr noundef %61, ptr noundef %62)
  br i1 %63, label %64, label %66

64:                                               ; preds = %57
  %65 = load ptr, ptr %10, align 8, !tbaa !137
  store i32 1, ptr %65, align 4, !tbaa !94
  store i32 0, ptr %6, align 4
  store i32 1, ptr %16, align 4
  br label %97

66:                                               ; preds = %57
  br label %67

67:                                               ; preds = %66
  %68 = load i64, ptr %13, align 8, !tbaa !96
  %69 = add i64 %68, 1
  store i64 %69, ptr %13, align 8, !tbaa !96
  br label %51, !llvm.loop !141

70:                                               ; preds = %51
  br label %72

71:                                               ; preds = %28
  br label %72

72:                                               ; preds = %71, %70
  br label %73

73:                                               ; preds = %72, %5
  %74 = load ptr, ptr %7, align 8, !tbaa !3
  %75 = getelementptr inbounds nuw %struct.Curl_cfilter, ptr %74, i32 0, i32 1
  %76 = load ptr, ptr %75, align 8, !tbaa !121
  %77 = icmp ne ptr %76, null
  br i1 %77, label %78, label %94

78:                                               ; preds = %73
  %79 = load ptr, ptr %7, align 8, !tbaa !3
  %80 = getelementptr inbounds nuw %struct.Curl_cfilter, ptr %79, i32 0, i32 1
  %81 = load ptr, ptr %80, align 8, !tbaa !121
  %82 = getelementptr inbounds nuw %struct.Curl_cfilter, ptr %81, i32 0, i32 0
  %83 = load ptr, ptr %82, align 8, !tbaa !86
  %84 = getelementptr inbounds nuw %struct.Curl_cftype, ptr %83, i32 0, i32 15
  %85 = load ptr, ptr %84, align 8, !tbaa !142
  %86 = load ptr, ptr %7, align 8, !tbaa !3
  %87 = getelementptr inbounds nuw %struct.Curl_cfilter, ptr %86, i32 0, i32 1
  %88 = load ptr, ptr %87, align 8, !tbaa !121
  %89 = load ptr, ptr %8, align 8, !tbaa !8
  %90 = load i32, ptr %9, align 4, !tbaa !94
  %91 = load ptr, ptr %10, align 8, !tbaa !137
  %92 = load ptr, ptr %11, align 8, !tbaa !89
  %93 = call i32 %85(ptr noundef %88, ptr noundef %89, i32 noundef %90, ptr noundef %91, ptr noundef %92)
  br label %95

94:                                               ; preds = %73
  br label %95

95:                                               ; preds = %94, %78
  %96 = phi i32 [ %93, %78 ], [ 48, %94 ]
  store i32 %96, ptr %6, align 4
  store i32 1, ptr %16, align 4
  br label %97

97:                                               ; preds = %95, %64, %40, %30
  call void @llvm.lifetime.end.p0(i64 8, ptr %13) #5
  call void @llvm.lifetime.end.p0(i64 8, ptr %12) #5
  %98 = load i32, ptr %6, align 4
  ret i32 %98
}