; Function Attrs: nounwind uwtable
define internal i32 @cf_hc_query(ptr noundef readonly captures(none) %0, ptr noundef %1, i32 noundef %2, ptr noundef %3, ptr noundef %4) #0 {
  %6 = alloca %struct.curltime, align 8
  %7 = alloca %struct.curltime, align 8
  %8 = getelementptr inbounds nuw i8, ptr %0, i64 16
  %9 = load ptr, ptr %8, align 8, !tbaa !3
  %10 = getelementptr inbounds nuw i8, ptr %0, i64 36
  %11 = load i8, ptr %10, align 4
  %12 = and i8 %11, 1
  %.not = icmp eq i8 %12, 0
  br i1 %.not, label %13, label %.loopexit

13:                                               ; preds = %5
  switch i32 %2, label %.loopexit [
    i32 4, label %17
    i32 5, label %43
    i32 7, label %.preheader
  ]

.preheader:                                       ; preds = %13
  %14 = getelementptr inbounds nuw i8, ptr %9, i64 152
  %15 = load i64, ptr %14, align 8, !tbaa !84
  %.not52 = icmp eq i64 %15, 0
  br i1 %.not52, label %.loopexit, label %.lr.ph

.lr.ph:                                           ; preds = %.preheader
  %16 = getelementptr inbounds nuw i8, ptr %9, i64 40
  br label %69

17:                                               ; preds = %13
  call void @llvm.lifetime.start.p0(i64 16, ptr nonnull %7) #4
  %18 = getelementptr inbounds nuw i8, ptr %9, i64 152
  %19 = load i64, ptr %18, align 8, !tbaa !84
  %.not5.i = icmp eq i64 %19, 0
  br i1 %.not5.i, label %cf_get_max_baller_time.exit, label %.lr.ph.i

.lr.ph.i:                                         ; preds = %17
  %20 = getelementptr i8, ptr %9, i64 48
  %21 = getelementptr inbounds nuw i8, ptr %7, i64 8
  br label %22

22:                                               ; preds = %39, %.lr.ph.i
  %.sroa.0.03.i = phi i64 [ 0, %.lr.ph.i ], [ %.sroa.0.1.i, %39 ]
  %.02.i = phi i64 [ 0, %.lr.ph.i ], [ %40, %39 ]
  %.sroa.4.01.i = phi i32 [ 0, %.lr.ph.i ], [ %.sroa.4.1.i, %39 ]
  %.idx.i = mul nuw nsw i64 %.02.i, 56
  %23 = getelementptr i8, ptr %20, i64 %.idx.i
  %24 = load ptr, ptr %23, align 8, !tbaa !86
  call void @llvm.memset.p0.i64(ptr noundef nonnull align 8 dereferenceable(16) %7, i8 0, i64 16, i1 false)
  %.not.i = icmp eq ptr %24, null
  br i1 %.not.i, label %39, label %25

25:                                               ; preds = %22
  %26 = load ptr, ptr %24, align 8, !tbaa !81
  %27 = getelementptr inbounds nuw i8, ptr %26, i64 112
  %28 = load ptr, ptr %27, align 8, !tbaa !118
  %29 = call i32 %28(ptr noundef nonnull %24, ptr noundef %1, i32 noundef 4, ptr noundef null, ptr noundef nonnull %7) #4
  %.not15.i = icmp eq i32 %29, 0
  br i1 %.not15.i, label %30, label %39

30:                                               ; preds = %25
  %31 = load i64, ptr %7, align 8, !tbaa !131
  %32 = icmp ne i64 %31, 0
  %33 = load i32, ptr %21, align 8
  %34 = icmp ne i32 %33, 0
  %or.cond.i = select i1 %32, i1 true, i1 %34
  br i1 %or.cond.i, label %35, label %39

35:                                               ; preds = %30
  %36 = call i64 @Curl_timediff_us(i64 %31, i32 %33, i64 %.sroa.0.03.i, i32 %.sroa.4.01.i) #4
  %37 = icmp sgt i64 %36, 0
  br i1 %37, label %38, label %39

38:                                               ; preds = %35
  %.sroa.0.0.copyload.i = load i64, ptr %7, align 8, !tbaa !100
  %.sroa.4.0.copyload.i = load i32, ptr %21, align 8, !tbaa !101
  br label %39

39:                                               ; preds = %38, %35, %30, %25, %22
  %.sroa.4.1.i = phi i32 [ %.sroa.4.01.i, %25 ], [ %.sroa.4.0.copyload.i, %38 ], [ %.sroa.4.01.i, %35 ], [ %.sroa.4.01.i, %30 ], [ %.sroa.4.01.i, %22 ]
  %.sroa.0.1.i = phi i64 [ %.sroa.0.03.i, %25 ], [ %.sroa.0.0.copyload.i, %38 ], [ %.sroa.0.03.i, %35 ], [ %.sroa.0.03.i, %30 ], [ %.sroa.0.03.i, %22 ]
  %40 = add nuw i64 %.02.i, 1
  %41 = load i64, ptr %18, align 8, !tbaa !84
  %42 = icmp ult i64 %40, %41
  br i1 %42, label %22, label %cf_get_max_baller_time.exit, !llvm.loop !132

cf_get_max_baller_time.exit:                      ; preds = %39, %17
  %.sroa.4.0.lcssa.i = phi i32 [ 0, %17 ], [ %.sroa.4.1.i, %39 ]
  %.sroa.0.0.lcssa.i = phi i64 [ 0, %17 ], [ %.sroa.0.1.i, %39 ]
  call void @llvm.lifetime.end.p0(i64 16, ptr nonnull %7) #4
  store i64 %.sroa.0.0.lcssa.i, ptr %4, align 8, !tbaa !100
  %.sroa.42.0..sroa_idx = getelementptr inbounds nuw i8, ptr %4, i64 8
  store i32 %.sroa.4.0.lcssa.i, ptr %.sroa.42.0..sroa_idx, align 8, !tbaa !101
  br label %89

43:                                               ; preds = %13
  call void @llvm.lifetime.start.p0(i64 16, ptr nonnull %6) #4
  %44 = getelementptr inbounds nuw i8, ptr %9, i64 152
  %45 = load i64, ptr %44, align 8, !tbaa !84
  %.not5.i32 = icmp eq i64 %45, 0
  br i1 %.not5.i32, label %cf_get_max_baller_time.exit49, label %.lr.ph.i33

.lr.ph.i33:                                       ; preds = %43
  %46 = getelementptr i8, ptr %9, i64 48
  %47 = getelementptr inbounds nuw i8, ptr %6, i64 8
  br label %48

48:                                               ; preds = %65, %.lr.ph.i33
  %.sroa.0.03.i34 = phi i64 [ 0, %.lr.ph.i33 ], [ %.sroa.0.1.i41, %65 ]
  %.02.i35 = phi i64 [ 0, %.lr.ph.i33 ], [ %66, %65 ]
  %.sroa.4.01.i36 = phi i32 [ 0, %.lr.ph.i33 ], [ %.sroa.4.1.i40, %65 ]
  %.idx.i37 = mul nuw nsw i64 %.02.i35, 56
  %49 = getelementptr i8, ptr %46, i64 %.idx.i37
  %50 = load ptr, ptr %49, align 8, !tbaa !86
  call void @llvm.memset.p0.i64(ptr noundef nonnull align 8 dereferenceable(16) %6, i8 0, i64 16, i1 false)
  %.not.i38 = icmp eq ptr %50, null
  br i1 %.not.i38, label %65, label %51

51:                                               ; preds = %48
  %52 = load ptr, ptr %50, align 8, !tbaa !81
  %53 = getelementptr inbounds nuw i8, ptr %52, i64 112
  %54 = load ptr, ptr %53, align 8, !tbaa !118
  %55 = call i32 %54(ptr noundef nonnull %50, ptr noundef %1, i32 noundef 5, ptr noundef null, ptr noundef nonnull %6) #4
  %.not15.i39 = icmp eq i32 %55, 0
  br i1 %.not15.i39, label %56, label %65

56:                                               ; preds = %51
  %57 = load i64, ptr %6, align 8, !tbaa !131
  %58 = icmp ne i64 %57, 0
  %59 = load i32, ptr %47, align 8
  %60 = icmp ne i32 %59, 0
  %or.cond.i46 = select i1 %58, i1 true, i1 %60
  br i1 %or.cond.i46, label %61, label %65

61:                                               ; preds = %56
  %62 = call i64 @Curl_timediff_us(i64 %57, i32 %59, i64 %.sroa.0.03.i34, i32 %.sroa.4.01.i36) #4
  %63 = icmp sgt i64 %62, 0
  br i1 %63, label %64, label %65

64:                                               ; preds = %61
  %.sroa.0.0.copyload.i47 = load i64, ptr %6, align 8, !tbaa !100
  %.sroa.4.0.copyload.i48 = load i32, ptr %47, align 8, !tbaa !101
  br label %65

65:                                               ; preds = %64, %61, %56, %51, %48
  %.sroa.4.1.i40 = phi i32 [ %.sroa.4.01.i36, %51 ], [ %.sroa.4.0.copyload.i48, %64 ], [ %.sroa.4.01.i36, %61 ], [ %.sroa.4.01.i36, %56 ], [ %.sroa.4.01.i36, %48 ]
  %.sroa.0.1.i41 = phi i64 [ %.sroa.0.03.i34, %51 ], [ %.sroa.0.0.copyload.i47, %64 ], [ %.sroa.0.03.i34, %61 ], [ %.sroa.0.03.i34, %56 ], [ %.sroa.0.03.i34, %48 ]
  %66 = add nuw i64 %.02.i35, 1
  %67 = load i64, ptr %44, align 8, !tbaa !84
  %68 = icmp ult i64 %66, %67
  br i1 %68, label %48, label %cf_get_max_baller_time.exit49, !llvm.loop !132

cf_get_max_baller_time.exit49:                    ; preds = %65, %43
  %.sroa.4.0.lcssa.i42 = phi i32 [ 0, %43 ], [ %.sroa.4.1.i40, %65 ]
  %.sroa.0.0.lcssa.i43 = phi i64 [ 0, %43 ], [ %.sroa.0.1.i41, %65 ]
  call void @llvm.lifetime.end.p0(i64 16, ptr nonnull %6) #4
  store i64 %.sroa.0.0.lcssa.i43, ptr %4, align 8, !tbaa !100
  %.sroa.4.0..sroa_idx = getelementptr inbounds nuw i8, ptr %4, i64 8
  store i32 %.sroa.4.0.lcssa.i42, ptr %.sroa.4.0..sroa_idx, align 8, !tbaa !101
  br label %89

69:                                               ; preds = %.lr.ph, %cf_hc_baller_needs_flush.exit.thread
  %70 = phi i64 [ %15, %.lr.ph ], [ %79, %cf_hc_baller_needs_flush.exit.thread ]
  %.02851 = phi i64 [ 0, %.lr.ph ], [ %80, %cf_hc_baller_needs_flush.exit.thread ]
  %71 = getelementptr inbounds nuw [2 x %struct.cf_hc_baller], ptr %16, i64 0, i64 %.02851
  %72 = getelementptr inbounds nuw i8, ptr %71, i64 8
  %73 = load ptr, ptr %72, align 8, !tbaa !86
  %.not.i50 = icmp eq ptr %73, null
  br i1 %.not.i50, label %cf_hc_baller_needs_flush.exit.thread, label %74

74:                                               ; preds = %69
  %75 = getelementptr inbounds nuw i8, ptr %71, i64 16
  %76 = load i32, ptr %75, align 8, !tbaa !88
  %.not4.i = icmp eq i32 %76, 0
  br i1 %.not4.i, label %cf_hc_baller_needs_flush.exit, label %cf_hc_baller_needs_flush.exit.thread

cf_hc_baller_needs_flush.exit:                    ; preds = %74
  %77 = tail call zeroext i1 @Curl_conn_cf_needs_flush(ptr noundef nonnull %73, ptr noundef %1) #4
  br i1 %77, label %78, label %cf_hc_baller_needs_flush.exit.cf_hc_baller_needs_flush.exit.thread_crit_edge

cf_hc_baller_needs_flush.exit.cf_hc_baller_needs_flush.exit.thread_crit_edge: ; preds = %cf_hc_baller_needs_flush.exit
  %.pre = load i64, ptr %14, align 8, !tbaa !84
  br label %cf_hc_baller_needs_flush.exit.thread

78:                                               ; preds = %cf_hc_baller_needs_flush.exit
  store i32 1, ptr %3, align 4, !tbaa !101
  br label %89

cf_hc_baller_needs_flush.exit.thread:             ; preds = %cf_hc_baller_needs_flush.exit.cf_hc_baller_needs_flush.exit.thread_crit_edge, %69, %74
  %79 = phi i64 [ %.pre, %cf_hc_baller_needs_flush.exit.cf_hc_baller_needs_flush.exit.thread_crit_edge ], [ %70, %69 ], [ %70, %74 ]
  %80 = add nuw i64 %.02851, 1
  %81 = icmp ult i64 %80, %79
  br i1 %81, label %69, label %.loopexit, !llvm.loop !133

.loopexit:                                        ; preds = %cf_hc_baller_needs_flush.exit.thread, %.preheader, %13, %5
  %82 = getelementptr inbounds nuw i8, ptr %0, i64 8
  %83 = load ptr, ptr %82, align 8, !tbaa !112
  %.not30 = icmp eq ptr %83, null
  br i1 %.not30, label %89, label %84

84:                                               ; preds = %.loopexit
  %85 = load ptr, ptr %83, align 8, !tbaa !81
  %86 = getelementptr inbounds nuw i8, ptr %85, i64 112
  %87 = load ptr, ptr %86, align 8, !tbaa !118
  %88 = tail call i32 %87(ptr noundef nonnull %83, ptr noundef %1, i32 noundef %2, ptr noundef %3, ptr noundef %4) #4
  br label %89

89:                                               ; preds = %84, %.loopexit, %78, %cf_get_max_baller_time.exit49, %cf_get_max_baller_time.exit
  %.0 = phi i32 [ 0, %78 ], [ 0, %cf_get_max_baller_time.exit49 ], [ 0, %cf_get_max_baller_time.exit ], [ %88, %84 ], [ 48, %.loopexit ]
  ret i32 %.0
}